target datalayout = "e-m:e-p270:32:32-p271:32:32-p272:64:64-i64:64-i128:128-f80:128-n8:16:32:64-S128"
target triple = "x86_64-pc-linux-gnu"

%struct.Model256 = type { [256 x i32], [256 x i32], i32, [68 x i32], i32, i32, i32, i32 }

; Function Attrs: nounwind uwtable
define internal void @model256_reset(ptr noundef %0) #1 {
  %2 = alloca ptr, align 8
  %3 = alloca i32, align 4
  store ptr %0, ptr %2, align 8, !tbaa !78
  call void @llvm.lifetime.start.p0(i64 4, ptr %3) #8
  store i32 0, ptr %3, align 4, !tbaa !38
  br label %4

4:                                                ; preds = %13, %1
  %5 = load i32, ptr %3, align 4, !tbaa !38
  %6 = icmp slt i32 %5, 255
  br i1 %6, label %7, label %16

7:                                                ; preds = %4
  %8 = load ptr, ptr %2, align 8, !tbaa !78
  %9 = getelementptr inbounds nuw %struct.Model256, ptr %8, i32 0, i32 0
  %10 = load i32, ptr %3, align 4, !tbaa !38
  %11 = sext i32 %10 to i64
  %12 = getelementptr inbounds [256 x i32], ptr %9, i64 0, i64 %11
  store i32 1, ptr %12, align 4, !tbaa !38
  br label %13

13:                                               ; preds = %7
  %14 = load i32, ptr %3, align 4, !tbaa !38
  %15 = add nsw i32 %14, 1
  store i32 %15, ptr %3, align 4, !tbaa !38
  br label %4, !llvm.loop !88

16:                                               ; preds = %4
  %17 = load ptr, ptr %2, align 8, !tbaa !78
  %18 = getelementptr inbounds nuw %struct.Model256, ptr %17, i32 0, i32 0
  %19 = getelementptr inbounds [256 x i32], ptr %18, i64 0, i64 255
  store i32 0, ptr %19, align 4, !tbaa !38
  %20 = load ptr, ptr %2, align 8, !tbaa !78
  %21 = getelementptr inbounds nuw %struct.Model256, ptr %20, i32 0, i32 2
  store i32 0, ptr %21, align 4, !tbaa !89
  %22 = load ptr, ptr %2, align 8, !tbaa !78
  %23 = getelementptr inbounds nuw %struct.Model256, ptr %22, i32 0, i32 5
  store i32 256, ptr %23, align 4, !tbaa !90
  %24 = load ptr, ptr %2, align 8, !tbaa !78
  %25 = getelementptr inbounds nuw %struct.Model256, ptr %24, i32 0, i32 7
  store i32 1, ptr %25, align 4, !tbaa !91
  %26 = load ptr, ptr %2, align 8, !tbaa !78
  call void @model256_update(ptr noundef %26, i32 noundef 255)
  %27 = load ptr, ptr %2, align 8, !tbaa !78
  %28 = getelementptr inbounds nuw %struct.Model256, ptr %27, i32 0, i32 5
  store i32 131, ptr %28, align 4, !tbaa !90
  %29 = load ptr, ptr %2, align 8, !tbaa !78
  %30 = getelementptr inbounds nuw %struct.Model256, ptr %29, i32 0, i32 7
  store i32 131, ptr %30, align 4, !tbaa !91
  call void @llvm.lifetime.end.p0(i64 4, ptr %3) #8
  ret void
}

; Function Attrs: cold nounwind optsize uwtable
define internal void @model256_init(ptr noundef %0) #0 {
  %2 = alloca ptr, align 8
  store ptr %0, ptr %2, align 8, !tbaa !78
  %3 = load ptr, ptr %2, align 8, !tbaa !78
  %4 = getelementptr inbounds nuw %struct.Model256, ptr %3, i32 0, i32 6
  store i32 2096, ptr %4, align 4, !tbaa !80
  %5 = load ptr, ptr %2, align 8, !tbaa !78
  %6 = getelementptr inbounds nuw %struct.Model256, ptr %5, i32 0, i32 4
  store i32 66, ptr %6, align 4, !tbaa !81
  %7 = load ptr, ptr %2, align 8, !tbaa !78
  call void @model256_reset(ptr noundef %7)
  ret void
}