; Function Attrs: cold nofree norecurse nosync nounwind optsize memory(argmem: readwrite) uwtable
define internal fastcc void @model256_init(ptr noundef captures(none) initializes((2324, 2328), (2332, 2336)) %0) unnamed_addr #4 {
  %2 = getelementptr inbounds nuw i8, ptr %0, i64 2332
  store i32 2096, ptr %2, align 4, !tbaa !78
  %3 = getelementptr inbounds nuw i8, ptr %0, i64 2324
  store i32 66, ptr %3, align 4, !tbaa !79
  br label %4

4:                                                ; preds = %4, %1
  %indvars.iv.i = phi i64 [ 0, %1 ], [ %indvars.iv.next.i, %4 ]
  %5 = getelementptr inbounds nuw [256 x i32], ptr %0, i64 0, i64 %indvars.iv.i
  store i32 1, ptr %5, align 4, !tbaa !56
  %indvars.iv.next.i = add nuw nsw i64 %indvars.iv.i, 1
  %exitcond.not.i = icmp eq i64 %indvars.iv.next.i, 255
  br i1 %exitcond.not.i, label %model256_reset.exit, label %4, !llvm.loop !80

model256_reset.exit:                              ; preds = %4
  %6 = getelementptr inbounds nuw i8, ptr %0, i64 1020
  store i32 0, ptr %6, align 4, !tbaa !56
  %7 = getelementptr inbounds nuw i8, ptr %0, i64 2048
  store i32 0, ptr %7, align 4, !tbaa !81
  %8 = getelementptr inbounds nuw i8, ptr %0, i64 2328
  store i32 256, ptr %8, align 4, !tbaa !82
  %9 = getelementptr inbounds nuw i8, ptr %0, i64 2336
  store i32 1, ptr %9, align 4, !tbaa !83
  tail call fastcc void @model256_update(ptr noundef nonnull %0, i32 noundef 255)
  store i32 131, ptr %8, align 4, !tbaa !82
  store i32 131, ptr %9, align 4, !tbaa !83
  ret void
}